; ModuleID = '37/1956.cpp'
source_filename = "37/1956.cpp"
target datalayout = "e-m:e-p270:32:32-p271:32:32-p272:64:64-i64:64-f80:128-n8:16:32:64-S128"
target triple = "x86_64-pc-linux-gnu"

%"class.std::ios_base::Init" = type { i8 }
%"class.std::basic_istream" = type { i32 (...)**, i64, %"class.std::basic_ios" }
%"class.std::basic_ios" = type { %"class.std::ios_base", %"class.std::basic_ostream"*, i8, i8, %"class.std::basic_streambuf"*, %"class.std::ctype"*, %"class.std::num_put"*, %"class.std::num_get"* }
%"class.std::ios_base" = type { i32 (...)**, i64, i64, i32, i32, i32, %"struct.std::ios_base::_Callback_list"*, %"struct.std::ios_base::_Words", [8 x %"struct.std::ios_base::_Words"], i32, %"struct.std::ios_base::_Words"*, %"class.std::locale" }
%"struct.std::ios_base::_Callback_list" = type { %"struct.std::ios_base::_Callback_list"*, void (i32, %"class.std::ios_base"*, i32)*, i32, i32 }
%"struct.std::ios_base::_Words" = type { i8*, i64 }
%"class.std::locale" = type { %"class.std::locale::_Impl"* }
%"class.std::locale::_Impl" = type { i32, %"class.std::locale::facet"**, i64, %"class.std::locale::facet"**, i8** }
%"class.std::locale::facet" = type <{ i32 (...)**, i32, [4 x i8] }>
%"class.std::basic_ostream" = type { i32 (...)**, %"class.std::basic_ios" }
%"class.std::basic_streambuf" = type { i32 (...)**, i8*, i8*, i8*, i8*, i8*, i8*, %"class.std::locale" }
%"class.std::ctype" = type <{ %"class.std::locale::facet.base", [4 x i8], %struct.__locale_struct*, i8, [7 x i8], i32*, i32*, i16*, i8, [256 x i8], [256 x i8], i8, [6 x i8] }>
%"class.std::locale::facet.base" = type <{ i32 (...)**, i32 }>
%struct.__locale_struct = type { [13 x %struct.__locale_data*], i16*, i32*, i32*, [13 x i8*] }
%struct.__locale_data = type opaque
%"class.std::num_put" = type { %"class.std::locale::facet.base", [4 x i8] }
%"class.std::num_get" = type { %"class.std::locale::facet.base", [4 x i8] }

@_ZStL8__ioinit = internal global %"class.std::ios_base::Init" zeroinitializer, align 1
@__dso_handle = external hidden global i8
@_ZSt3cin = external dso_local global %"class.std::basic_istream", align 8
@_ZSt4cout = external dso_local global %"class.std::basic_ostream", align 8
@.str = private unnamed_addr constant [3 x i8] c"no\00", align 1
@llvm.global_ctors = appending global [1 x { i32, void ()*, i8* }] [{ i32, void ()*, i8* } { i32 65535, void ()* @_GLOBAL__sub_I_1956.cpp, i8* null }]

; Function Attrs: noinline uwtable
define internal void @__cxx_global_var_init() #0 section ".text.startup" {
  call void @_ZNSt8ios_base4InitC1Ev(%"class.std::ios_base::Init"* @_ZStL8__ioinit)
  %1 = call i32 @__cxa_atexit(void (i8*)* bitcast (void (%"class.std::ios_base::Init"*)* @_ZNSt8ios_base4InitD1Ev to void (i8*)*), i8* getelementptr inbounds (%"class.std::ios_base::Init", %"class.std::ios_base::Init"* @_ZStL8__ioinit, i32 0, i32 0), i8* @__dso_handle) #3
  ret void
}

declare dso_local void @_ZNSt8ios_base4InitC1Ev(%"class.std::ios_base::Init"*) unnamed_addr #1

; Function Attrs: nounwind
declare dso_local void @_ZNSt8ios_base4InitD1Ev(%"class.std::ios_base::Init"*) unnamed_addr #2

; Function Attrs: nounwind
declare dso_local i32 @__cxa_atexit(void (i8*)*, i8*, i8*) #3

; Function Attrs: noinline norecurse uwtable
define dso_local i32 @main() #4 {
  %1 = alloca i32, align 4
  %2 = alloca i32, align 4
  %3 = alloca i32, align 4
  %4 = alloca i32, align 4
  %5 = alloca [100000 x i8], align 16
  %6 = alloca i32, align 4
  %7 = alloca i32, align 4
  %8 = alloca i32, align 4
  %9 = alloca i32, align 4
  store i32 0, i32* %1, align 4
  store i32 0, i32* %3, align 4
  store i32 0, i32* %4, align 4
  %10 = call dereferenceable(280) %"class.std::basic_istream"* @_ZNSirsERi(%"class.std::basic_istream"* @_ZSt3cin, i32* dereferenceable(4) %2)
  store i32 1, i32* %6, align 4
  br label %11

11:                                               ; preds = %84, %0
  %12 = load i32, i32* %6, align 4
  %13 = load i32, i32* %2, align 4
  %14 = icmp sle i32 %12, %13
  br i1 %14, label %15, label %87

15:                                               ; preds = %11
  store i32 0, i32* %4, align 4
  %16 = getelementptr inbounds [100000 x i8], [100000 x i8]* %5, i64 0, i64 0
  %17 = call dereferenceable(280) %"class.std::basic_istream"* @_ZStrsIcSt11char_traitsIcEERSt13basic_istreamIT_T0_ES6_PS3_(%"class.std::basic_istream"* dereferenceable(280) @_ZSt3cin, i8* %16)
  %18 = getelementptr inbounds [100000 x i8], [100000 x i8]* %5, i64 0, i64 0
  %19 = call i64 @strlen(i8* %18) #6
  %20 = trunc i64 %19 to i32
  store i32 %20, i32* %7, align 4
  store i32 0, i32* %8, align 4
  br label %21

21:                                               ; preds = %74, %15
  %22 = load i32, i32* %8, align 4
  %23 = load i32, i32* %7, align 4
  %24 = icmp slt i32 %22, %23
  br i1 %24, label %25, label %77

25:                                               ; preds = %21
  store i32 0, i32* %3, align 4
  %26 = load i32, i32* %8, align 4
  %27 = add nsw i32 %26, 1
  store i32 %27, i32* %9, align 4
  br label %28

28:                                               ; preds = %49, %25
  %29 = load i32, i32* %9, align 4
  %30 = load i32, i32* %7, align 4
  %31 = icmp slt i32 %29, %30
  br i1 %31, label %32, label %52

32:                                               ; preds = %28
  %33 = load i32, i32* %8, align 4
  %34 = sext i32 %33 to i64
  %35 = getelementptr inbounds [100000 x i8], [100000 x i8]* %5, i64 0, i64 %34
  %36 = load i8, i8* %35, align 1
  %37 = sext i8 %36 to i32
  %38 = load i32, i32* %9, align 4
  %39 = sext i32 %38 to i64
  %40 = getelementptr inbounds [100000 x i8], [100000 x i8]* %5, i64 0, i64 %39
  %41 = load i8, i8* %40, align 1
  %42 = sext i8 %41 to i32
  %43 = icmp eq i32 %37, %42
  br i1 %43, label %44, label %48

44:                                               ; preds = %32
  store i32 1, i32* %3, align 4
  %45 = load i32, i32* %9, align 4
  %46 = sext i32 %45 to i64
  %47 = getelementptr inbounds [100000 x i8], [100000 x i8]* %5, i64 0, i64 %46
  store i8 49, i8* %47, align 1
  br label %48

48:                                               ; preds = %44, %32
  br label %49

49:                                               ; preds = %48
  %50 = load i32, i32* %9, align 4
  %51 = add nsw i32 %50, 1
  store i32 %51, i32* %9, align 4
  br label %28

52:                                               ; preds = %28
  %53 = load i32, i32* %3, align 4
  %54 = icmp eq i32 %53, 1
  br i1 %54, label %55, label %56

55:                                               ; preds = %52
  br label %74

56:                                               ; preds = %52
  %57 = load i32, i32* %3, align 4
  %58 = icmp eq i32 %57, 0
  br i1 %58, label %59, label %73

59:                                               ; preds = %56
  %60 = load i32, i32* %8, align 4
  %61 = sext i32 %60 to i64
  %62 = getelementptr inbounds [100000 x i8], [100000 x i8]* %5, i64 0, i64 %61
  %63 = load i8, i8* %62, align 1
  %64 = sext i8 %63 to i32
  %65 = icmp ne i32 %64, 49
  br i1 %65, label %66, label %73

66:                                               ; preds = %59
  %67 = load i32, i32* %8, align 4
  %68 = sext i32 %67 to i64
  %69 = getelementptr inbounds [100000 x i8], [100000 x i8]* %5, i64 0, i64 %68
  %70 = load i8, i8* %69, align 1
  %71 = call dereferenceable(272) %"class.std::basic_ostream"* @_ZStlsISt11char_traitsIcEERSt13basic_ostreamIcT_ES5_c(%"class.std::basic_ostream"* dereferenceable(272) @_ZSt4cout, i8 signext %70)
  %72 = call dereferenceable(272) %"class.std::basic_ostream"* @_ZNSolsEPFRSoS_E(%"class.std::basic_ostream"* %71, %"class.std::basic_ostream"* (%"class.std::basic_ostream"*)* @_ZSt4endlIcSt11char_traitsIcEERSt13basic_ostreamIT_T0_ES6_)
  store i32 1, i32* %4, align 4
  br label %77

73:                                               ; preds = %59, %56
  br label %74

74:                                               ; preds = %73, %55
  %75 = load i32, i32* %8, align 4
  %76 = add nsw i32 %75, 1
  store i32 %76, i32* %8, align 4
  br label %21

77:                                               ; preds = %66, %21
  %78 = load i32, i32* %4, align 4
  %79 = icmp eq i32 %78, 0
  br i1 %79, label %80, label %83

80:                                               ; preds = %77
  %81 = call dereferenceable(272) %"class.std::basic_ostream"* @_ZStlsISt11char_traitsIcEERSt13basic_ostreamIcT_ES5_PKc(%"class.std::basic_ostream"* dereferenceable(272) @_ZSt4cout, i8* getelementptr inbounds ([3 x i8], [3 x i8]* @.str, i64 0, i64 0))
  %82 = call dereferenceable(272) %"class.std::basic_ostream"* @_ZNSolsEPFRSoS_E(%"class.std::basic_ostream"* %81, %"class.std::basic_ostream"* (%"class.std::basic_ostream"*)* @_ZSt4endlIcSt11char_traitsIcEERSt13basic_ostreamIT_T0_ES6_)
  br label %83

83:                                               ; preds = %80, %77
  br label %84

84:                                               ; preds = %83
  %85 = load i32, i32* %6, align 4
  %86 = add nsw i32 %85, 1
  store i32 %86, i32* %6, align 4
  br label %11

87:                                               ; preds = %11
  ret i32 0
}

declare dso_local dereferenceable(280) %"class.std::basic_istream"* @_ZNSirsERi(%"class.std::basic_istream"*, i32* dereferenceable(4)) #1

declare dso_local dereferenceable(280) %"class.std::basic_istream"* @_ZStrsIcSt11char_traitsIcEERSt13basic_istreamIT_T0_ES6_PS3_(%"class.std::basic_istream"* dereferenceable(280), i8*) #1

; Function Attrs: nounwind readonly
declare dso_local i64 @strlen(i8*) #5

declare dso_local dereferenceable(272) %"class.std::basic_ostream"* @_ZStlsISt11char_traitsIcEERSt13basic_ostreamIcT_ES5_c(%"class.std::basic_ostream"* dereferenceable(272), i8 signext) #1

declare dso_local dereferenceable(272) %"class.std::basic_ostream"* @_ZNSolsEPFRSoS_E(%"class.std::basic_ostream"*, %"class.std::basic_ostream"* (%"class.std::basic_ostream"*)*) #1

declare dso_local dereferenceable(272) %"class.std::basic_ostream"* @_ZSt4endlIcSt11char_traitsIcEERSt13basic_ostreamIT_T0_ES6_(%"class.std::basic_ostream"* dereferenceable(272)) #1

declare dso_local dereferenceable(272) %"class.std::basic_ostream"* @_ZStlsISt11char_traitsIcEERSt13basic_ostreamIcT_ES5_PKc(%"class.std::basic_ostream"* dereferenceable(272), i8*) #1

; Function Attrs: noinline uwtable
define internal void @_GLOBAL__sub_I_1956.cpp() #0 section ".text.startup" {
  call void @__cxx_global_var_init()
  ret void
}


!llvm.module.flags = !{!0}
!llvm.ident = !{!1}

!0 = !{i32 1, !"wchar_size", i32 4}
!1 = !{!"clang version 10.0.0-4ubuntu1 "}
